target datalayout = "e-m:e-p270:32:32-p271:32:32-p272:64:64-i64:64-i128:128-f80:128-n8:16:32:64-S128"
target triple = "x86_64-pc-linux-gnu"

@plugin_name = dso_local constant [17 x i8] c"Cgroup v1 plugin\00", align 16
@plugin_type = dso_local constant [10 x i8] c"cgroup/v1\00", align 1
@g_user_cgpath = internal global [5 x [4096 x i8]] zeroinitializer, align 16
@g_job_cgpath = internal global [5 x [4096 x i8]] zeroinitializer, align 16
@g_step_cgpath = internal global [5 x [4096 x i8]] zeroinitializer, align 16
@g_step_active_cnt = internal global [5 x i16] zeroinitializer, align 2
@g_task_list = dso_local global [5 x ptr] zeroinitializer, align 16
@.str.5 = private unnamed_addr constant [18 x i8] c"%s: %s: %s loaded\00", align 1
@__func__.init = private unnamed_addr constant [5 x i8] c"init\00", align 1

; Function Attrs: nounwind uwtable
define dso_local i32 @init() #0 {
  %1 = alloca i32, align 4
  call void @llvm.lifetime.start.p0(i64 4, ptr %1) #7
  store i32 0, ptr %1, align 4
  br label %2

2:                                                ; preds = %42, %0
  %3 = load i32, ptr %1, align 4
  %4 = icmp slt i32 %3, 5
  br i1 %4, label %5, label %45

5:                                                ; preds = %2
  %6 = load i32, ptr %1, align 4
  %7 = sext i32 %6 to i64
  %8 = getelementptr inbounds [5 x [4096 x i8]], ptr @g_user_cgpath, i64 0, i64 %7
  %9 = getelementptr inbounds [4096 x i8], ptr %8, i64 0, i64 0
  store i8 0, ptr %9, align 16
  %10 = load i32, ptr %1, align 4
  %11 = sext i32 %10 to i64
  %12 = getelementptr inbounds [5 x [4096 x i8]], ptr @g_job_cgpath, i64 0, i64 %11
  %13 = getelementptr inbounds [4096 x i8], ptr %12, i64 0, i64 0
  store i8 0, ptr %13, align 16
  %14 = load i32, ptr %1, align 4
  %15 = sext i32 %14 to i64
  %16 = getelementptr inbounds [5 x [4096 x i8]], ptr @g_step_cgpath, i64 0, i64 %15
  %17 = getelementptr inbounds [4096 x i8], ptr %16, i64 0, i64 0
  store i8 0, ptr %17, align 16
  %18 = load i32, ptr %1, align 4
  %19 = sext i32 %18 to i64
  %20 = getelementptr inbounds [5 x i16], ptr @g_step_active_cnt, i64 0, i64 %19
  store i16 0, ptr %20, align 2
  br label %21

21:                                               ; preds = %5
  %22 = load i32, ptr %1, align 4
  %23 = sext i32 %22 to i64
  %24 = getelementptr inbounds [5 x ptr], ptr @g_task_list, i64 0, i64 %23
  %25 = load ptr, ptr %24, align 8
  %26 = icmp ne ptr %25, null
  br i1 %26, label %27, label %32

27:                                               ; preds = %21
  %28 = load i32, ptr %1, align 4
  %29 = sext i32 %28 to i64
  %30 = getelementptr inbounds [5 x ptr], ptr @g_task_list, i64 0, i64 %29
  %31 = load ptr, ptr %30, align 8
  call void @list_destroy(ptr noundef %31)
  br label %32

32:                                               ; preds = %27, %21
  %33 = load i32, ptr %1, align 4
  %34 = sext i32 %33 to i64
  %35 = getelementptr inbounds [5 x ptr], ptr @g_task_list, i64 0, i64 %34
  store ptr null, ptr %35, align 8
  br label %36

36:                                               ; preds = %32
  br label %37

37:                                               ; preds = %36
  %38 = call ptr @list_create(ptr noundef @_free_task_cg_info)
  %39 = load i32, ptr %1, align 4
  %40 = sext i32 %39 to i64
  %41 = getelementptr inbounds [5 x ptr], ptr @g_task_list, i64 0, i64 %40
  store ptr %38, ptr %41, align 8
  br label %42

42:                                               ; preds = %37
  %43 = load i32, ptr %1, align 4
  %44 = add nsw i32 %43, 1
  store i32 %44, ptr %1, align 4
  br label %2, !llvm.loop !8

45:                                               ; preds = %2
  br label %46

46:                                               ; preds = %45
  br label %47

47:                                               ; preds = %46
  %48 = call i32 @get_log_level()
  %49 = icmp sge i32 %48, 5
  br i1 %49, label %50, label %51

50:                                               ; preds = %47
  call void (i32, ptr, ...) @log_var(i32 noundef 5, ptr noundef @.str.5, ptr noundef @plugin_type, ptr noundef @__func__.init, ptr noundef @plugin_name)
  br label %51

51:                                               ; preds = %50, %47
  br label %52

52:                                               ; preds = %51
  br label %53

53:                                               ; preds = %52
  br label %54

54:                                               ; preds = %53
  br label %55

55:                                               ; preds = %54
  call void @llvm.lifetime.end.p0(i64 4, ptr %1) #7
  ret i32 0
}