; Function Attrs: nounwind uwtable
define dso_local noundef i32 @init() local_unnamed_addr #0 {
  br label %1

1:                                                ; preds = %0, %9
  %indvars.iv = phi i64 [ 0, %0 ], [ %indvars.iv.next, %9 ]
  %2 = getelementptr inbounds nuw [5 x [4096 x i8]], ptr @g_user_cgpath, i64 0, i64 %indvars.iv
  store i8 0, ptr %2, align 16
  %3 = getelementptr inbounds nuw [5 x [4096 x i8]], ptr @g_job_cgpath, i64 0, i64 %indvars.iv
  store i8 0, ptr %3, align 16
  %4 = getelementptr inbounds nuw [5 x [4096 x i8]], ptr @g_step_cgpath, i64 0, i64 %indvars.iv
  store i8 0, ptr %4, align 16
  %5 = getelementptr inbounds nuw [5 x i16], ptr @g_step_active_cnt, i64 0, i64 %indvars.iv
  store i16 0, ptr %5, align 2
  %6 = getelementptr inbounds nuw [5 x ptr], ptr @g_task_list, i64 0, i64 %indvars.iv
  %7 = load ptr, ptr %6, align 8
  %.not = icmp eq ptr %7, null
  br i1 %.not, label %9, label %8

8:                                                ; preds = %1
  tail call void @list_destroy(ptr noundef nonnull %7) #11
  br label %9

9:                                                ; preds = %8, %1
  store ptr null, ptr %6, align 8
  %10 = tail call ptr @list_create(ptr noundef nonnull @_free_task_cg_info) #11
  store ptr %10, ptr %6, align 8
  %indvars.iv.next = add nuw nsw i64 %indvars.iv, 1
  %exitcond.not = icmp eq i64 %indvars.iv.next, 5
  br i1 %exitcond.not, label %11, label %1, !llvm.loop !8

11:                                               ; preds = %9
  %12 = tail call i32 @get_log_level() #11
  %13 = icmp sgt i32 %12, 4
  br i1 %13, label %14, label %15

14:                                               ; preds = %11
  tail call void (i32, ptr, ...) @log_var(i32 noundef 5, ptr noundef nonnull @.str.5, ptr noundef nonnull @plugin_type, ptr noundef nonnull @__func__.init, ptr noundef nonnull @plugin_name) #11
  br label %15

15:                                               ; preds = %14, %11
  ret i32 0
}